; Function Attrs: nounwind uwtable
define dso_local void @git_global_config_paths(ptr noundef writeonly captures(none) initializes((0, 8)) %0, ptr noundef writeonly captures(none) initializes((0, 8)) %1) local_unnamed_addr #0 {
  %3 = tail call ptr @getenv(ptr noundef nonnull @.str.44) #30
  %.not.i = icmp eq ptr %3, null
  br i1 %.not.i, label %xstrdup_or_null.exit.thread, label %xstrdup_or_null.exit

xstrdup_or_null.exit:                             ; preds = %2
  %4 = tail call ptr @xstrdup(ptr noundef nonnull %3) #30
  %.not = icmp eq ptr %4, null
  br i1 %.not, label %xstrdup_or_null.exit.thread, label %7

xstrdup_or_null.exit.thread:                      ; preds = %2, %xstrdup_or_null.exit
  %5 = tail call ptr @interpolate_path(ptr noundef nonnull @.str.45, i32 noundef 0) #30
  %6 = tail call ptr @xdg_config_home(ptr noundef nonnull @.str.46) #30
  br label %7

7:                                                ; preds = %xstrdup_or_null.exit.thread, %xstrdup_or_null.exit
  %.05 = phi ptr [ %4, %xstrdup_or_null.exit ], [ %5, %xstrdup_or_null.exit.thread ]
  %.0 = phi ptr [ null, %xstrdup_or_null.exit ], [ %6, %xstrdup_or_null.exit.thread ]
  store ptr %.05, ptr %0, align 8, !tbaa !17
  store ptr %.0, ptr %1, align 8, !tbaa !17
  ret void
}